target datalayout = "e-m:e-p270:32:32-p271:32:32-p272:64:64-i64:64-i128:128-f80:128-n8:16:32:64-S128"
target triple = "x86_64-pc-linux-gnu"

%struct.JNINativeInterface_ = type { ptr, ptr, ptr, ptr, ptr, ptr, ptr, ptr, ptr, ptr, ptr, ptr, ptr, ptr, ptr, ptr, ptr, ptr, ptr, ptr, ptr, ptr, ptr, ptr, ptr, ptr, ptr, ptr, ptr, ptr, ptr, ptr, ptr, ptr, ptr, ptr, ptr, ptr, ptr, ptr, ptr, ptr, ptr, ptr, ptr, ptr, ptr, ptr, ptr, ptr, ptr, ptr, ptr, ptr, ptr, ptr, ptr, ptr, ptr, ptr, ptr, ptr, ptr, ptr, ptr, ptr, ptr, ptr, ptr, ptr, ptr, ptr, ptr, ptr, ptr, ptr, ptr, ptr, ptr, ptr, ptr, ptr, ptr, ptr, ptr, ptr, ptr, ptr, ptr, ptr, ptr, ptr, ptr, ptr, ptr, ptr, ptr, ptr, ptr, ptr, ptr, ptr, ptr, ptr, ptr, ptr, ptr, ptr, ptr, ptr, ptr, ptr, ptr, ptr, ptr, ptr, ptr, ptr, ptr, ptr, ptr, ptr, ptr, ptr, ptr, ptr, ptr, ptr, ptr, ptr, ptr, ptr, ptr, ptr, ptr, ptr, ptr, ptr, ptr, ptr, ptr, ptr, ptr, ptr, ptr, ptr, ptr, ptr, ptr, ptr, ptr, ptr, ptr, ptr, ptr, ptr, ptr, ptr, ptr, ptr, ptr, ptr, ptr, ptr, ptr, ptr, ptr, ptr, ptr, ptr, ptr, ptr, ptr, ptr, ptr, ptr, ptr, ptr, ptr, ptr, ptr, ptr, ptr, ptr, ptr, ptr, ptr, ptr, ptr, ptr, ptr, ptr, ptr, ptr, ptr, ptr, ptr, ptr, ptr, ptr, ptr, ptr, ptr, ptr, ptr, ptr, ptr, ptr, ptr, ptr, ptr, ptr, ptr, ptr, ptr, ptr, ptr, ptr, ptr, ptr, ptr, ptr, ptr, ptr, ptr, ptr, ptr, ptr, ptr, ptr, ptr, ptr, ptr, ptr, ptr }
%union.jvalue = type { i64 }

@.str.41 = private unnamed_addr constant [44 x i8] c"JNU_GetStaticFieldByName: illegal signature\00", align 1

; Function Attrs: nounwind uwtable
define i64 @JNU_GetStaticFieldByName(ptr noundef %0, ptr noundef %1, ptr noundef %2, ptr noundef %3, ptr noundef %4) #0 {
  %6 = alloca %union.jvalue, align 8
  %7 = alloca ptr, align 8
  %8 = alloca ptr, align 8
  %9 = alloca ptr, align 8
  %10 = alloca ptr, align 8
  %11 = alloca ptr, align 8
  %12 = alloca ptr, align 8
  %13 = alloca ptr, align 8
  store ptr %0, ptr %7, align 8
  store ptr %1, ptr %8, align 8
  store ptr %2, ptr %9, align 8
  store ptr %3, ptr %10, align 8
  store ptr %4, ptr %11, align 8
  store i32 0, ptr %6, align 8
  %14 = load ptr, ptr %7, align 8
  %15 = load ptr, ptr %14, align 8
  %16 = getelementptr inbounds %struct.JNINativeInterface_, ptr %15, i32 0, i32 26
  %17 = load ptr, ptr %16, align 8
  %18 = load ptr, ptr %7, align 8
  %19 = call i32 %17(ptr noundef %18, i32 noundef 3)
  %20 = icmp slt i32 %19, 0
  br i1 %20, label %21, label %22

21:                                               ; preds = %5
  br label %145

22:                                               ; preds = %5
  %23 = load ptr, ptr %7, align 8
  %24 = load ptr, ptr %23, align 8
  %25 = getelementptr inbounds %struct.JNINativeInterface_, ptr %24, i32 0, i32 6
  %26 = load ptr, ptr %25, align 8
  %27 = load ptr, ptr %7, align 8
  %28 = load ptr, ptr %9, align 8
  %29 = call ptr %26(ptr noundef %27, ptr noundef %28)
  store ptr %29, ptr %12, align 8
  %30 = load ptr, ptr %12, align 8
  %31 = icmp eq ptr %30, null
  br i1 %31, label %32, label %33

32:                                               ; preds = %22
  br label %145

33:                                               ; preds = %22
  %34 = load ptr, ptr %7, align 8
  %35 = load ptr, ptr %34, align 8
  %36 = getelementptr inbounds %struct.JNINativeInterface_, ptr %35, i32 0, i32 144
  %37 = load ptr, ptr %36, align 8
  %38 = load ptr, ptr %7, align 8
  %39 = load ptr, ptr %12, align 8
  %40 = load ptr, ptr %10, align 8
  %41 = load ptr, ptr %11, align 8
  %42 = call ptr %37(ptr noundef %38, ptr noundef %39, ptr noundef %40, ptr noundef %41)
  store ptr %42, ptr %13, align 8
  %43 = load ptr, ptr %13, align 8
  %44 = icmp eq ptr %43, null
  br i1 %44, label %45, label %46

45:                                               ; preds = %33
  br label %138

46:                                               ; preds = %33
  %47 = load ptr, ptr %11, align 8
  %48 = load i8, ptr %47, align 1
  %49 = sext i8 %48 to i32
  switch i32 %49, label %131 [
    i32 91, label %50
    i32 76, label %50
    i32 90, label %59
    i32 66, label %68
    i32 67, label %77
    i32 83, label %86
    i32 73, label %95
    i32 74, label %104
    i32 70, label %113
    i32 68, label %122
  ]

50:                                               ; preds = %46, %46
  %51 = load ptr, ptr %7, align 8
  %52 = load ptr, ptr %51, align 8
  %53 = getelementptr inbounds %struct.JNINativeInterface_, ptr %52, i32 0, i32 145
  %54 = load ptr, ptr %53, align 8
  %55 = load ptr, ptr %7, align 8
  %56 = load ptr, ptr %12, align 8
  %57 = load ptr, ptr %13, align 8
  %58 = call ptr %54(ptr noundef %55, ptr noundef %56, ptr noundef %57)
  store ptr %58, ptr %6, align 8
  br label %137

59:                                               ; preds = %46
  %60 = load ptr, ptr %7, align 8
  %61 = load ptr, ptr %60, align 8
  %62 = getelementptr inbounds %struct.JNINativeInterface_, ptr %61, i32 0, i32 146
  %63 = load ptr, ptr %62, align 8
  %64 = load ptr, ptr %7, align 8
  %65 = load ptr, ptr %12, align 8
  %66 = load ptr, ptr %13, align 8
  %67 = call zeroext i8 %63(ptr noundef %64, ptr noundef %65, ptr noundef %66)
  store i8 %67, ptr %6, align 8
  br label %137

68:                                               ; preds = %46
  %69 = load ptr, ptr %7, align 8
  %70 = load ptr, ptr %69, align 8
  %71 = getelementptr inbounds %struct.JNINativeInterface_, ptr %70, i32 0, i32 147
  %72 = load ptr, ptr %71, align 8
  %73 = load ptr, ptr %7, align 8
  %74 = load ptr, ptr %12, align 8
  %75 = load ptr, ptr %13, align 8
  %76 = call signext i8 %72(ptr noundef %73, ptr noundef %74, ptr noundef %75)
  store i8 %76, ptr %6, align 8
  br label %137

77:                                               ; preds = %46
  %78 = load ptr, ptr %7, align 8
  %79 = load ptr, ptr %78, align 8
  %80 = getelementptr inbounds %struct.JNINativeInterface_, ptr %79, i32 0, i32 148
  %81 = load ptr, ptr %80, align 8
  %82 = load ptr, ptr %7, align 8
  %83 = load ptr, ptr %12, align 8
  %84 = load ptr, ptr %13, align 8
  %85 = call zeroext i16 %81(ptr noundef %82, ptr noundef %83, ptr noundef %84)
  store i16 %85, ptr %6, align 8
  br label %137

86:                                               ; preds = %46
  %87 = load ptr, ptr %7, align 8
  %88 = load ptr, ptr %87, align 8
  %89 = getelementptr inbounds %struct.JNINativeInterface_, ptr %88, i32 0, i32 149
  %90 = load ptr, ptr %89, align 8
  %91 = load ptr, ptr %7, align 8
  %92 = load ptr, ptr %12, align 8
  %93 = load ptr, ptr %13, align 8
  %94 = call signext i16 %90(ptr noundef %91, ptr noundef %92, ptr noundef %93)
  store i16 %94, ptr %6, align 8
  br label %137

95:                                               ; preds = %46
  %96 = load ptr, ptr %7, align 8
  %97 = load ptr, ptr %96, align 8
  %98 = getelementptr inbounds %struct.JNINativeInterface_, ptr %97, i32 0, i32 150
  %99 = load ptr, ptr %98, align 8
  %100 = load ptr, ptr %7, align 8
  %101 = load ptr, ptr %12, align 8
  %102 = load ptr, ptr %13, align 8
  %103 = call i32 %99(ptr noundef %100, ptr noundef %101, ptr noundef %102)
  store i32 %103, ptr %6, align 8
  br label %137

104:                                              ; preds = %46
  %105 = load ptr, ptr %7, align 8
  %106 = load ptr, ptr %105, align 8
  %107 = getelementptr inbounds %struct.JNINativeInterface_, ptr %106, i32 0, i32 151
  %108 = load ptr, ptr %107, align 8
  %109 = load ptr, ptr %7, align 8
  %110 = load ptr, ptr %12, align 8
  %111 = load ptr, ptr %13, align 8
  %112 = call i64 %108(ptr noundef %109, ptr noundef %110, ptr noundef %111)
  store i64 %112, ptr %6, align 8
  br label %137

113:                                              ; preds = %46
  %114 = load ptr, ptr %7, align 8
  %115 = load ptr, ptr %114, align 8
  %116 = getelementptr inbounds %struct.JNINativeInterface_, ptr %115, i32 0, i32 152
  %117 = load ptr, ptr %116, align 8
  %118 = load ptr, ptr %7, align 8
  %119 = load ptr, ptr %12, align 8
  %120 = load ptr, ptr %13, align 8
  %121 = call float %117(ptr noundef %118, ptr noundef %119, ptr noundef %120)
  store float %121, ptr %6, align 8
  br label %137

122:                                              ; preds = %46
  %123 = load ptr, ptr %7, align 8
  %124 = load ptr, ptr %123, align 8
  %125 = getelementptr inbounds %struct.JNINativeInterface_, ptr %124, i32 0, i32 153
  %126 = load ptr, ptr %125, align 8
  %127 = load ptr, ptr %7, align 8
  %128 = load ptr, ptr %12, align 8
  %129 = load ptr, ptr %13, align 8
  %130 = call double %126(ptr noundef %127, ptr noundef %128, ptr noundef %129)
  store double %130, ptr %6, align 8
  br label %137

131:                                              ; preds = %46
  %132 = load ptr, ptr %7, align 8
  %133 = load ptr, ptr %132, align 8
  %134 = getelementptr inbounds %struct.JNINativeInterface_, ptr %133, i32 0, i32 18
  %135 = load ptr, ptr %134, align 8
  %136 = load ptr, ptr %7, align 8
  call void %135(ptr noundef %136, ptr noundef @.str.41)
  br label %137

137:                                              ; preds = %131, %122, %113, %104, %95, %86, %77, %68, %59, %50
  br label %138

138:                                              ; preds = %137, %45
  %139 = load ptr, ptr %7, align 8
  %140 = load ptr, ptr %139, align 8
  %141 = getelementptr inbounds %struct.JNINativeInterface_, ptr %140, i32 0, i32 23
  %142 = load ptr, ptr %141, align 8
  %143 = load ptr, ptr %7, align 8
  %144 = load ptr, ptr %12, align 8
  call void %142(ptr noundef %143, ptr noundef %144)
  br label %145

145:                                              ; preds = %138, %32, %21
  %146 = load ptr, ptr %8, align 8
  %147 = icmp ne ptr %146, null
  br i1 %147, label %148, label %156

148:                                              ; preds = %145
  %149 = load ptr, ptr %7, align 8
  %150 = load ptr, ptr %149, align 8
  %151 = getelementptr inbounds %struct.JNINativeInterface_, ptr %150, i32 0, i32 228
  %152 = load ptr, ptr %151, align 8
  %153 = load ptr, ptr %7, align 8
  %154 = call zeroext i8 %152(ptr noundef %153)
  %155 = load ptr, ptr %8, align 8
  store i8 %154, ptr %155, align 1
  br label %156

156:                                              ; preds = %148, %145
  %157 = getelementptr inbounds %union.jvalue, ptr %6, i32 0, i32 0
  %158 = load i64, ptr %157, align 8
  ret i64 %158
}