; Function Attrs: nounwind uwtable
define i64 @JNU_GetStaticFieldByName(ptr noundef %0, ptr noundef writeonly %1, ptr noundef %2, ptr noundef %3, ptr noundef %4) local_unnamed_addr #0 {
  %6 = load ptr, ptr %0, align 8
  %7 = getelementptr inbounds i8, ptr %6, i64 208
  %8 = load ptr, ptr %7, align 8
  %9 = tail call i32 %8(ptr noundef nonnull %0, i32 noundef 3) #10
  %10 = icmp slt i32 %9, 0
  br i1 %10, label %84, label %11

11:                                               ; preds = %5
  %12 = load ptr, ptr %0, align 8
  %13 = getelementptr inbounds i8, ptr %12, i64 48
  %14 = load ptr, ptr %13, align 8
  %15 = tail call ptr %14(ptr noundef nonnull %0, ptr noundef %2) #10
  %16 = icmp eq ptr %15, null
  br i1 %16, label %84, label %17

17:                                               ; preds = %11
  %18 = load ptr, ptr %0, align 8
  %19 = getelementptr inbounds i8, ptr %18, i64 1152
  %20 = load ptr, ptr %19, align 8
  %21 = tail call ptr %20(ptr noundef nonnull %0, ptr noundef nonnull %15, ptr noundef %3, ptr noundef %4) #10
  %22 = icmp eq ptr %21, null
  br i1 %22, label %77, label %23

23:                                               ; preds = %17
  %24 = load i8, ptr %4, align 1
  switch i8 %24, label %73 [
    i8 91, label %25
    i8 76, label %25
    i8 90, label %31
    i8 66, label %36
    i8 67, label %41
    i8 83, label %46
    i8 73, label %51
    i8 74, label %56
    i8 70, label %61
    i8 68, label %67
  ]

25:                                               ; preds = %23, %23
  %26 = load ptr, ptr %0, align 8
  %27 = getelementptr inbounds i8, ptr %26, i64 1160
  %28 = load ptr, ptr %27, align 8
  %29 = tail call ptr %28(ptr noundef nonnull %0, ptr noundef nonnull %15, ptr noundef nonnull %21) #10
  %30 = ptrtoint ptr %29 to i64
  %.sroa.0.sroa.0.sroa.0.sroa.0.0.extract.trunc79 = trunc i64 %30 to i8
  %.sroa.0.sroa.0.sroa.0.sroa.11.0.extract.shift88102 = lshr i64 %30, 8
  %.sroa.0.sroa.0.sroa.0.sroa.11.0.extract.trunc89 = trunc i64 %.sroa.0.sroa.0.sroa.0.sroa.11.0.extract.shift88102 to i16
  %.sroa.0.sroa.0.sroa.11.0.extract.shift70103 = lshr i64 %30, 16
  %.sroa.0.sroa.0.sroa.11.0.extract.trunc71 = trunc i64 %.sroa.0.sroa.0.sroa.11.0.extract.shift70103 to i32
  %.sroa.0.sroa.11.0.extract.shift = and i64 %30, -4294967296
  br label %77

31:                                               ; preds = %23
  %32 = load ptr, ptr %0, align 8
  %33 = getelementptr inbounds i8, ptr %32, i64 1168
  %34 = load ptr, ptr %33, align 8
  %35 = tail call zeroext i8 %34(ptr noundef nonnull %0, ptr noundef nonnull %15, ptr noundef nonnull %21) #10
  br label %77

36:                                               ; preds = %23
  %37 = load ptr, ptr %0, align 8
  %38 = getelementptr inbounds i8, ptr %37, i64 1176
  %39 = load ptr, ptr %38, align 8
  %40 = tail call signext i8 %39(ptr noundef nonnull %0, ptr noundef nonnull %15, ptr noundef nonnull %21) #10
  br label %77

41:                                               ; preds = %23
  %42 = load ptr, ptr %0, align 8
  %43 = getelementptr inbounds i8, ptr %42, i64 1184
  %44 = load ptr, ptr %43, align 8
  %45 = tail call zeroext i16 %44(ptr noundef nonnull %0, ptr noundef nonnull %15, ptr noundef nonnull %21) #10
  %.sroa.0.sroa.0.sroa.0.sroa.0.0.extract.trunc = trunc i16 %45 to i8
  %.sroa.0.sroa.0.sroa.0.sroa.11.0.extract.shift = lshr i16 %45, 8
  br label %77

46:                                               ; preds = %23
  %47 = load ptr, ptr %0, align 8
  %48 = getelementptr inbounds i8, ptr %47, i64 1192
  %49 = load ptr, ptr %48, align 8
  %50 = tail call signext i16 %49(ptr noundef nonnull %0, ptr noundef nonnull %15, ptr noundef nonnull %21) #10
  %.sroa.0.sroa.0.sroa.0.sroa.0.0.extract.trunc76 = trunc i16 %50 to i8
  %.sroa.0.sroa.0.sroa.0.sroa.11.0.extract.shift82 = lshr i16 %50, 8
  br label %77

51:                                               ; preds = %23
  %52 = load ptr, ptr %0, align 8
  %53 = getelementptr inbounds i8, ptr %52, i64 1200
  %54 = load ptr, ptr %53, align 8
  %55 = tail call i32 %54(ptr noundef nonnull %0, ptr noundef nonnull %15, ptr noundef nonnull %21) #10
  %.sroa.0.sroa.0.sroa.0.sroa.0.0.extract.trunc78 = trunc i32 %55 to i8
  %.sroa.0.sroa.0.sroa.0.sroa.11.0.extract.shift86101 = lshr i32 %55, 8
  %.sroa.0.sroa.0.sroa.0.sroa.11.0.extract.trunc87 = trunc i32 %.sroa.0.sroa.0.sroa.0.sroa.11.0.extract.shift86101 to i16
  %.sroa.0.sroa.0.sroa.11.0.extract.shift68 = lshr i32 %55, 16
  br label %77

56:                                               ; preds = %23
  %57 = load ptr, ptr %0, align 8
  %58 = getelementptr inbounds i8, ptr %57, i64 1208
  %59 = load ptr, ptr %58, align 8
  %60 = tail call i64 %59(ptr noundef nonnull %0, ptr noundef nonnull %15, ptr noundef nonnull %21) #10
  %.sroa.0.sroa.0.sroa.0.sroa.0.0.extract.trunc81 = trunc i64 %60 to i8
  %.sroa.0.sroa.0.sroa.0.sroa.11.0.extract.shift9299 = lshr i64 %60, 8
  %.sroa.0.sroa.0.sroa.0.sroa.11.0.extract.trunc93 = trunc i64 %.sroa.0.sroa.0.sroa.0.sroa.11.0.extract.shift9299 to i16
  %.sroa.0.sroa.0.sroa.11.0.extract.shift74100 = lshr i64 %60, 16
  %.sroa.0.sroa.0.sroa.11.0.extract.trunc75 = trunc i64 %.sroa.0.sroa.0.sroa.11.0.extract.shift74100 to i32
  %.sroa.0.sroa.11.0.extract.shift62 = and i64 %60, -4294967296
  br label %77

61:                                               ; preds = %23
  %62 = load ptr, ptr %0, align 8
  %63 = getelementptr inbounds i8, ptr %62, i64 1216
  %64 = load ptr, ptr %63, align 8
  %65 = tail call float %64(ptr noundef nonnull %0, ptr noundef nonnull %15, ptr noundef nonnull %21) #10
  %66 = bitcast float %65 to i32
  %.sroa.0.sroa.0.sroa.0.sroa.0.0.extract.trunc77 = trunc i32 %66 to i8
  %.sroa.0.sroa.0.sroa.0.sroa.11.0.extract.shift8498 = lshr i32 %66, 8
  %.sroa.0.sroa.0.sroa.0.sroa.11.0.extract.trunc85 = trunc i32 %.sroa.0.sroa.0.sroa.0.sroa.11.0.extract.shift8498 to i16
  %.sroa.0.sroa.0.sroa.11.0.extract.shift = lshr i32 %66, 16
  br label %77

67:                                               ; preds = %23
  %68 = load ptr, ptr %0, align 8
  %69 = getelementptr inbounds i8, ptr %68, i64 1224
  %70 = load ptr, ptr %69, align 8
  %71 = tail call double %70(ptr noundef nonnull %0, ptr noundef nonnull %15, ptr noundef nonnull %21) #10
  %72 = bitcast double %71 to i64
  %.sroa.0.sroa.0.sroa.0.sroa.0.0.extract.trunc80 = trunc i64 %72 to i8
  %.sroa.0.sroa.0.sroa.0.sroa.11.0.extract.shift9096 = lshr i64 %72, 8
  %.sroa.0.sroa.0.sroa.0.sroa.11.0.extract.trunc91 = trunc i64 %.sroa.0.sroa.0.sroa.0.sroa.11.0.extract.shift9096 to i16
  %.sroa.0.sroa.0.sroa.11.0.extract.shift7297 = lshr i64 %72, 16
  %.sroa.0.sroa.0.sroa.11.0.extract.trunc73 = trunc i64 %.sroa.0.sroa.0.sroa.11.0.extract.shift7297 to i32
  %.sroa.0.sroa.11.0.extract.shift60 = and i64 %72, -4294967296
  br label %77

73:                                               ; preds = %23
  %74 = load ptr, ptr %0, align 8
  %75 = getelementptr inbounds i8, ptr %74, i64 144
  %76 = load ptr, ptr %75, align 8
  tail call void %76(ptr noundef nonnull %0, ptr noundef nonnull @.str.41) #10
  br label %77

77:                                               ; preds = %25, %31, %36, %41, %46, %51, %56, %61, %67, %73, %17
  %.sroa.0.sroa.11.0 = phi i64 [ 0, %17 ], [ 0, %73 ], [ %.sroa.0.sroa.11.0.extract.shift60, %67 ], [ 0, %61 ], [ %.sroa.0.sroa.11.0.extract.shift62, %56 ], [ 0, %51 ], [ 0, %46 ], [ 0, %41 ], [ 0, %36 ], [ 0, %31 ], [ %.sroa.0.sroa.11.0.extract.shift, %25 ]
  %.sroa.0.sroa.0.sroa.11.0 = phi i32 [ 0, %17 ], [ 0, %73 ], [ %.sroa.0.sroa.0.sroa.11.0.extract.trunc73, %67 ], [ %.sroa.0.sroa.0.sroa.11.0.extract.shift, %61 ], [ %.sroa.0.sroa.0.sroa.11.0.extract.trunc75, %56 ], [ %.sroa.0.sroa.0.sroa.11.0.extract.shift68, %51 ], [ 0, %46 ], [ 0, %41 ], [ 0, %36 ], [ 0, %31 ], [ %.sroa.0.sroa.0.sroa.11.0.extract.trunc71, %25 ]
  %.sroa.0.sroa.0.sroa.0.sroa.0.0 = phi i8 [ 0, %17 ], [ 0, %73 ], [ %.sroa.0.sroa.0.sroa.0.sroa.0.0.extract.trunc80, %67 ], [ %.sroa.0.sroa.0.sroa.0.sroa.0.0.extract.trunc77, %61 ], [ %.sroa.0.sroa.0.sroa.0.sroa.0.0.extract.trunc81, %56 ], [ %.sroa.0.sroa.0.sroa.0.sroa.0.0.extract.trunc78, %51 ], [ %.sroa.0.sroa.0.sroa.0.sroa.0.0.extract.trunc76, %46 ], [ %.sroa.0.sroa.0.sroa.0.sroa.0.0.extract.trunc, %41 ], [ %40, %36 ], [ %35, %31 ], [ %.sroa.0.sroa.0.sroa.0.sroa.0.0.extract.trunc79, %25 ]
  %.sroa.0.sroa.0.sroa.0.sroa.11.0 = phi i16 [ 0, %17 ], [ 0, %73 ], [ %.sroa.0.sroa.0.sroa.0.sroa.11.0.extract.trunc91, %67 ], [ %.sroa.0.sroa.0.sroa.0.sroa.11.0.extract.trunc85, %61 ], [ %.sroa.0.sroa.0.sroa.0.sroa.11.0.extract.trunc93, %56 ], [ %.sroa.0.sroa.0.sroa.0.sroa.11.0.extract.trunc87, %51 ], [ %.sroa.0.sroa.0.sroa.0.sroa.11.0.extract.shift82, %46 ], [ %.sroa.0.sroa.0.sroa.0.sroa.11.0.extract.shift, %41 ], [ 0, %36 ], [ 0, %31 ], [ %.sroa.0.sroa.0.sroa.0.sroa.11.0.extract.trunc89, %25 ]
  %78 = load ptr, ptr %0, align 8
  %79 = getelementptr inbounds i8, ptr %78, i64 184
  %80 = load ptr, ptr %79, align 8
  tail call void %80(ptr noundef nonnull %0, ptr noundef nonnull %15) #10
  %81 = shl i16 %.sroa.0.sroa.0.sroa.0.sroa.11.0, 8
  %82 = zext i8 %.sroa.0.sroa.0.sroa.0.sroa.0.0 to i16
  %83 = shl i32 %.sroa.0.sroa.0.sroa.11.0, 16
  br label %84

84:                                               ; preds = %11, %5, %77
  %.sroa.0.sroa.11.1 = phi i64 [ 0, %5 ], [ 0, %11 ], [ %.sroa.0.sroa.11.0, %77 ]
  %.sroa.0.sroa.0.sroa.11.1 = phi i32 [ 0, %5 ], [ 0, %11 ], [ %83, %77 ]
  %.sroa.0.sroa.0.sroa.0.sroa.0.1 = phi i16 [ 0, %5 ], [ 0, %11 ], [ %82, %77 ]
  %.sroa.0.sroa.0.sroa.0.sroa.11.1 = phi i16 [ 0, %5 ], [ 0, %11 ], [ %81, %77 ]
  %.not = icmp eq ptr %1, null
  br i1 %.not, label %90, label %85

85:                                               ; preds = %84
  %86 = load ptr, ptr %0, align 8
  %87 = getelementptr inbounds i8, ptr %86, i64 1824
  %88 = load ptr, ptr %87, align 8
  %89 = tail call zeroext i8 %88(ptr noundef nonnull %0) #10
  store i8 %89, ptr %1, align 1
  br label %90

90:                                               ; preds = %85, %84
  %.sroa.0.sroa.0.sroa.0.sroa.0.0.insert.insert = or disjoint i16 %.sroa.0.sroa.0.sroa.0.sroa.11.1, %.sroa.0.sroa.0.sroa.0.sroa.0.1
  %.sroa.0.sroa.0.sroa.0.0.insert.ext = zext i16 %.sroa.0.sroa.0.sroa.0.sroa.0.0.insert.insert to i32
  %.sroa.0.sroa.0.sroa.0.0.insert.insert = or disjoint i32 %.sroa.0.sroa.0.sroa.11.1, %.sroa.0.sroa.0.sroa.0.0.insert.ext
  %.sroa.0.sroa.0.0.insert.ext = zext i32 %.sroa.0.sroa.0.sroa.0.0.insert.insert to i64
  %.sroa.0.sroa.0.0.insert.insert = or i64 %.sroa.0.sroa.11.1, %.sroa.0.sroa.0.0.insert.ext
  ret i64 %.sroa.0.sroa.0.0.insert.insert
}